target datalayout = "e-m:e-p270:32:32-p271:32:32-p272:64:64-i64:64-i128:128-f80:128-n8:16:32:64-S128"
target triple = "x86_64-pc-linux-gnu"

%"class.std::vector" = type { %"struct.std::_Vector_base" }
%"struct.std::_Vector_base" = type { %"struct.std::_Vector_base<const Variable *, std::allocator<const Variable *>>::_Vector_impl" }
%"struct.std::_Vector_base<const Variable *, std::allocator<const Variable *>>::_Vector_impl" = type { %"struct.std::_Vector_base<const Variable *, std::allocator<const Variable *>>::_Vector_impl_data" }
%"struct.std::_Vector_base<const Variable *, std::allocator<const Variable *>>::_Vector_impl_data" = type { ptr, ptr, ptr }
%class.CGContext = type { ptr, i32, i32, i32, %"class.std::vector.0", ptr, ptr, %"class.std::map", ptr, ptr, ptr, %class.Effect }
%"class.std::vector.0" = type { %"struct.std::_Vector_base.1" }
%"struct.std::_Vector_base.1" = type { %"struct.std::_Vector_base<const Block *, std::allocator<const Block *>>::_Vector_impl" }
%"struct.std::_Vector_base<const Block *, std::allocator<const Block *>>::_Vector_impl" = type { %"struct.std::_Vector_base<const Block *, std::allocator<const Block *>>::_Vector_impl_data" }
%"struct.std::_Vector_base<const Block *, std::allocator<const Block *>>::_Vector_impl_data" = type { ptr, ptr, ptr }
%"class.std::map" = type { %"class.std::_Rb_tree" }
%"class.std::_Rb_tree" = type { %"struct.std::_Rb_tree<const Variable *, std::pair<const Variable *const, unsigned int>, std::_Select1st<std::pair<const Variable *const, unsigned int>>, std::less<const Variable *>>::_Rb_tree_impl" }
%"struct.std::_Rb_tree<const Variable *, std::pair<const Variable *const, unsigned int>, std::_Select1st<std::pair<const Variable *const, unsigned int>>, std::less<const Variable *>>::_Rb_tree_impl" = type { %"struct.std::_Rb_tree_key_compare", %"struct.std::_Rb_tree_header" }
%"struct.std::_Rb_tree_key_compare" = type { %"struct.std::less" }
%"struct.std::less" = type { i8 }
%"struct.std::_Rb_tree_header" = type { %"struct.std::_Rb_tree_node_base", i64 }
%"struct.std::_Rb_tree_node_base" = type { i32, ptr, ptr, ptr }
%class.Effect = type <{ %"class.std::vector", %"class.std::vector", %"class.std::vector", i8, i8, [6 x i8] }>
%class.RWDirective = type { ptr, ptr, ptr, ptr }

; Function Attrs: mustprogress nounwind uwtable
define linkonce_odr dso_local noundef zeroext i1 @_ZNK6Effect19is_side_effect_freeEv(ptr noundef nonnull align 8 dereferenceable(74) %0) #4 comdat align 2 {
  %2 = alloca ptr, align 8
  store ptr %0, ptr %2, align 8
  %3 = load ptr, ptr %2, align 8
  %4 = getelementptr inbounds %class.Effect, ptr %3, i32 0, i32 4
  %5 = load i8, ptr %4, align 1
  %6 = trunc i8 %5 to i1
  ret i1 %6
}

; Function Attrs: mustprogress uwtable
define dso_local noundef zeroext i1 @_ZNK9CGContext14is_nonreadableEPK8Variable(ptr noundef nonnull align 8 dereferenceable(216) %0, ptr noundef %1) #5 align 2 {
  %3 = alloca i1, align 1
  %4 = alloca ptr, align 8
  %5 = alloca ptr, align 8
  %6 = alloca i64, align 8
  %7 = alloca i64, align 8
  store ptr %0, ptr %4, align 8
  store ptr %1, ptr %5, align 8
  %8 = load ptr, ptr %4, align 8
  %9 = getelementptr inbounds %class.CGContext, ptr %8, i32 0, i32 6
  %10 = load ptr, ptr %9, align 8
  %11 = icmp ne ptr %10, null
  br i1 %11, label %12, label %38

12:                                               ; preds = %2
  %13 = getelementptr inbounds %class.CGContext, ptr %8, i32 0, i32 6
  %14 = load ptr, ptr %13, align 8
  %15 = getelementptr inbounds %class.RWDirective, ptr %14, i32 0, i32 0
  %16 = load ptr, ptr %15, align 8
  %17 = call noundef i64 @_ZNKSt6vectorIPK8VariableSaIS2_EE4sizeEv(ptr noundef nonnull align 8 dereferenceable(24) %16) #3
  store i64 %17, ptr %6, align 8
  store i64 0, ptr %7, align 8
  br label %18

18:                                               ; preds = %34, %12
  %19 = load i64, ptr %7, align 8
  %20 = load i64, ptr %6, align 8
  %21 = icmp ult i64 %19, %20
  br i1 %21, label %22, label %37

22:                                               ; preds = %18
  %23 = getelementptr inbounds %class.CGContext, ptr %8, i32 0, i32 6
  %24 = load ptr, ptr %23, align 8
  %25 = getelementptr inbounds %class.RWDirective, ptr %24, i32 0, i32 0
  %26 = load ptr, ptr %25, align 8
  %27 = load i64, ptr %7, align 8
  %28 = call noundef nonnull align 8 dereferenceable(8) ptr @_ZNKSt6vectorIPK8VariableSaIS2_EEixEm(ptr noundef nonnull align 8 dereferenceable(24) %26, i64 noundef %27) #3
  %29 = load ptr, ptr %28, align 8
  %30 = load ptr, ptr %5, align 8
  %31 = call noundef zeroext i1 @_ZNK8Variable5matchEPKS_(ptr noundef nonnull align 8 dereferenceable(200) %29, ptr noundef %30)
  br i1 %31, label %32, label %33

32:                                               ; preds = %22
  store i1 true, ptr %3, align 1
  br label %39

33:                                               ; preds = %22
  br label %34

34:                                               ; preds = %33
  %35 = load i64, ptr %7, align 8
  %36 = add i64 %35, 1
  store i64 %36, ptr %7, align 8
  br label %18, !llvm.loop !5

37:                                               ; preds = %18
  br label %38

38:                                               ; preds = %37, %2
  store i1 false, ptr %3, align 1
  br label %39

39:                                               ; preds = %38, %32
  %40 = load i1, ptr %3, align 1
  ret i1 %40
}

; Function Attrs: mustprogress nounwind uwtable
define linkonce_odr dso_local noundef nonnull align 8 dereferenceable(8) ptr @_ZNKSt6vectorIPK8VariableSaIS2_EEixEm(ptr noundef nonnull align 8 dereferenceable(24) %0, i64 noundef %1) #4 comdat align 2 {
  %3 = alloca ptr, align 8
  %4 = alloca i64, align 8
  store ptr %0, ptr %3, align 8
  store i64 %1, ptr %4, align 8
  %5 = load ptr, ptr %3, align 8
  %6 = getelementptr inbounds %"struct.std::_Vector_base", ptr %5, i32 0, i32 0
  %7 = getelementptr inbounds %"struct.std::_Vector_base<const Variable *, std::allocator<const Variable *>>::_Vector_impl_data", ptr %6, i32 0, i32 0
  %8 = load ptr, ptr %7, align 8
  %9 = load i64, ptr %4, align 8
  %10 = getelementptr inbounds ptr, ptr %8, i64 %9
  ret ptr %10
}

; Function Attrs: mustprogress nounwind uwtable
define linkonce_odr dso_local noundef i64 @_ZNKSt6vectorIPK8VariableSaIS2_EE4sizeEv(ptr noundef nonnull align 8 dereferenceable(24) %0) #4 comdat align 2 {
  %2 = alloca ptr, align 8
  store ptr %0, ptr %2, align 8
  %3 = load ptr, ptr %2, align 8
  %4 = getelementptr inbounds %"struct.std::_Vector_base", ptr %3, i32 0, i32 0
  %5 = getelementptr inbounds %"struct.std::_Vector_base<const Variable *, std::allocator<const Variable *>>::_Vector_impl_data", ptr %4, i32 0, i32 1
  %6 = load ptr, ptr %5, align 8
  %7 = getelementptr inbounds %"struct.std::_Vector_base", ptr %3, i32 0, i32 0
  %8 = getelementptr inbounds %"struct.std::_Vector_base<const Variable *, std::allocator<const Variable *>>::_Vector_impl_data", ptr %7, i32 0, i32 0
  %9 = load ptr, ptr %8, align 8
  %10 = ptrtoint ptr %6 to i64
  %11 = ptrtoint ptr %9 to i64
  %12 = sub i64 %10, %11
  %13 = sdiv exact i64 %12, 8
  ret i64 %13
}

; Function Attrs: mustprogress nounwind uwtable
define linkonce_odr dso_local noundef nonnull align 8 dereferenceable(24) ptr @_ZNK6Effect14get_write_varsEv(ptr noundef nonnull align 8 dereferenceable(74) %0) #4 comdat align 2 {
  %2 = alloca ptr, align 8
  store ptr %0, ptr %2, align 8
  %3 = load ptr, ptr %2, align 8
  %4 = getelementptr inbounds %class.Effect, ptr %3, i32 0, i32 1
  ret ptr %4
}

; Function Attrs: mustprogress nounwind uwtable
define linkonce_odr dso_local noundef nonnull align 8 dereferenceable(24) ptr @_ZNK6Effect13get_read_varsEv(ptr noundef nonnull align 8 dereferenceable(74) %0) #4 comdat align 2 {
  %2 = alloca ptr, align 8
  store ptr %0, ptr %2, align 8
  %3 = load ptr, ptr %2, align 8
  %4 = getelementptr inbounds %class.Effect, ptr %3, i32 0, i32 0
  ret ptr %4
}

; Function Attrs: mustprogress uwtable
define dso_local noundef zeroext i1 @_ZNK9CGContext11in_conflictERK6Effect(ptr noundef nonnull align 8 dereferenceable(216) %0, ptr noundef nonnull align 8 dereferenceable(74) %1) #5 align 2 {
  %3 = alloca i1, align 1
  %4 = alloca ptr, align 8
  %5 = alloca ptr, align 8
  %6 = alloca i64, align 8
  %7 = alloca ptr, align 8
  %8 = alloca ptr, align 8
  %9 = alloca ptr, align 8
  %10 = alloca ptr, align 8
  store ptr %0, ptr %4, align 8
  store ptr %1, ptr %5, align 8
  %11 = load ptr, ptr %4, align 8
  %12 = load ptr, ptr %5, align 8
  %13 = call noundef nonnull align 8 dereferenceable(24) ptr @_ZNK6Effect13get_read_varsEv(ptr noundef nonnull align 8 dereferenceable(74) %12)
  store ptr %13, ptr %7, align 8
  %14 = load ptr, ptr %5, align 8
  %15 = call noundef nonnull align 8 dereferenceable(24) ptr @_ZNK6Effect14get_write_varsEv(ptr noundef nonnull align 8 dereferenceable(74) %14)
  store ptr %15, ptr %8, align 8
  store i64 0, ptr %6, align 8
  br label %16

16:                                               ; preds = %44, %2
  %17 = load i64, ptr %6, align 8
  %18 = load ptr, ptr %7, align 8
  %19 = call noundef i64 @_ZNKSt6vectorIPK8VariableSaIS2_EE4sizeEv(ptr noundef nonnull align 8 dereferenceable(24) %18) #3
  %20 = icmp ult i64 %17, %19
  br i1 %20, label %21, label %47

21:                                               ; preds = %16
  %22 = load ptr, ptr %7, align 8
  %23 = load i64, ptr %6, align 8
  %24 = call noundef nonnull align 8 dereferenceable(8) ptr @_ZNKSt6vectorIPK8VariableSaIS2_EEixEm(ptr noundef nonnull align 8 dereferenceable(24) %22, i64 noundef %23) #3
  %25 = load ptr, ptr %24, align 8
  store ptr %25, ptr %9, align 8
  %26 = load ptr, ptr %9, align 8
  %27 = call noundef zeroext i1 @_ZNK9CGContext14is_nonreadableEPK8Variable(ptr noundef nonnull align 8 dereferenceable(216) %11, ptr noundef %26)
  br i1 %27, label %28, label %29

28:                                               ; preds = %21
  store i1 true, ptr %3, align 1
  br label %89

29:                                               ; preds = %21
  %30 = getelementptr inbounds %class.CGContext, ptr %11, i32 0, i32 9
  %31 = load ptr, ptr %30, align 8
  %32 = load ptr, ptr %9, align 8
  %33 = call noundef zeroext i1 @_ZNK6Effect20is_written_partiallyEPK8Variable(ptr noundef nonnull align 8 dereferenceable(74) %31, ptr noundef %32)
  br i1 %33, label %34, label %35

34:                                               ; preds = %29
  store i1 true, ptr %3, align 1
  br label %89

35:                                               ; preds = %29
  %36 = load ptr, ptr %9, align 8
  %37 = call noundef zeroext i1 @_ZNK8Variable11is_volatileEv(ptr noundef nonnull align 8 dereferenceable(200) %36)
  br i1 %37, label %38, label %43

38:                                               ; preds = %35
  %39 = getelementptr inbounds %class.CGContext, ptr %11, i32 0, i32 9
  %40 = load ptr, ptr %39, align 8
  %41 = call noundef zeroext i1 @_ZNK6Effect19is_side_effect_freeEv(ptr noundef nonnull align 8 dereferenceable(74) %40)
  br i1 %41, label %43, label %42

42:                                               ; preds = %38
  store i1 true, ptr %3, align 1
  br label %89

43:                                               ; preds = %38, %35
  br label %44

44:                                               ; preds = %43
  %45 = load i64, ptr %6, align 8
  %46 = add i64 %45, 1
  store i64 %46, ptr %6, align 8
  br label %16, !llvm.loop !22

47:                                               ; preds = %16
  store i64 0, ptr %6, align 8
  br label %48

48:                                               ; preds = %85, %47
  %49 = load i64, ptr %6, align 8
  %50 = load ptr, ptr %8, align 8
  %51 = call noundef i64 @_ZNKSt6vectorIPK8VariableSaIS2_EE4sizeEv(ptr noundef nonnull align 8 dereferenceable(24) %50) #3
  %52 = icmp ult i64 %49, %51
  br i1 %52, label %53, label %88

53:                                               ; preds = %48
  %54 = load ptr, ptr %8, align 8
  %55 = load i64, ptr %6, align 8
  %56 = call noundef nonnull align 8 dereferenceable(8) ptr @_ZNKSt6vectorIPK8VariableSaIS2_EEixEm(ptr noundef nonnull align 8 dereferenceable(24) %54, i64 noundef %55) #3
  %57 = load ptr, ptr %56, align 8
  store ptr %57, ptr %10, align 8
  %58 = load ptr, ptr %10, align 8
  %59 = call noundef zeroext i1 @_ZNK9CGContext14is_nonwritableEPK8Variable(ptr noundef nonnull align 8 dereferenceable(216) %11, ptr noundef %58)
  br i1 %59, label %63, label %60

60:                                               ; preds = %53
  %61 = load ptr, ptr %10, align 8
  %62 = call noundef zeroext i1 @_ZNK8Variable8is_constEv(ptr noundef nonnull align 8 dereferenceable(200) %61)
  br i1 %62, label %63, label %64

63:                                               ; preds = %60, %53
  store i1 true, ptr %3, align 1
  br label %89

64:                                               ; preds = %60
  %65 = getelementptr inbounds %class.CGContext, ptr %11, i32 0, i32 9
  %66 = load ptr, ptr %65, align 8
  %67 = load ptr, ptr %10, align 8
  %68 = call noundef zeroext i1 @_ZNK6Effect20is_written_partiallyEPK8Variable(ptr noundef nonnull align 8 dereferenceable(74) %66, ptr noundef %67)
  br i1 %68, label %69, label %70

69:                                               ; preds = %64
  store i1 true, ptr %3, align 1
  br label %89

70:                                               ; preds = %64
  %71 = getelementptr inbounds %class.CGContext, ptr %11, i32 0, i32 9
  %72 = load ptr, ptr %71, align 8
  %73 = load ptr, ptr %10, align 8
  %74 = call noundef zeroext i1 @_ZNK6Effect17is_read_partiallyEPK8Variable(ptr noundef nonnull align 8 dereferenceable(74) %72, ptr noundef %73)
  br i1 %74, label %75, label %76

75:                                               ; preds = %70
  store i1 true, ptr %3, align 1
  br label %89

76:                                               ; preds = %70
  %77 = load ptr, ptr %10, align 8
  %78 = call noundef zeroext i1 @_ZNK8Variable11is_volatileEv(ptr noundef nonnull align 8 dereferenceable(200) %77)
  br i1 %78, label %79, label %84

79:                                               ; preds = %76
  %80 = getelementptr inbounds %class.CGContext, ptr %11, i32 0, i32 9
  %81 = load ptr, ptr %80, align 8
  %82 = call noundef zeroext i1 @_ZNK6Effect19is_side_effect_freeEv(ptr noundef nonnull align 8 dereferenceable(74) %81)
  br i1 %82, label %84, label %83

83:                                               ; preds = %79
  store i1 true, ptr %3, align 1
  br label %89

84:                                               ; preds = %79, %76
  br label %85

85:                                               ; preds = %84
  %86 = load i64, ptr %6, align 8
  %87 = add i64 %86, 1
  store i64 %87, ptr %6, align 8
  br label %48, !llvm.loop !23

88:                                               ; preds = %48
  store i1 false, ptr %3, align 1
  br label %89

89:                                               ; preds = %88, %83, %75, %69, %63, %42, %34, %28
  %90 = load i1, ptr %3, align 1
  ret i1 %90
}