; Function Attrs: mustprogress uwtable
define dso_local noundef zeroext i1 @_ZNK9CGContext11in_conflictERK6Effect(ptr noundef nonnull align 8 dereferenceable(216) %0, ptr noundef nonnull readonly align 8 captures(none) dereferenceable(74) %1) local_unnamed_addr #4 align 2 {
  %3 = getelementptr inbounds nuw i8, ptr %1, i64 24
  %4 = getelementptr inbounds nuw i8, ptr %1, i64 8
  %5 = load ptr, ptr %4, align 8
  %6 = load ptr, ptr %1, align 8
  %.not = icmp eq ptr %5, %6
  br i1 %.not, label %.preheader, label %.lr.ph

.lr.ph:                                           ; preds = %2
  %7 = getelementptr inbounds nuw i8, ptr %0, i64 56
  %8 = getelementptr inbounds nuw i8, ptr %0, i64 120
  br label %13

.preheader:                                       ; preds = %44, %2
  %9 = getelementptr inbounds nuw i8, ptr %1, i64 32
  %10 = load ptr, ptr %9, align 8
  %11 = load ptr, ptr %3, align 8
  %.not38 = icmp eq ptr %10, %11
  br i1 %.not38, label %_ZNK9CGContext14is_nonreadableEPK8Variable.exit, label %.lr.ph27

.lr.ph27:                                         ; preds = %.preheader
  %12 = getelementptr inbounds nuw i8, ptr %0, i64 120
  br label %53

13:                                               ; preds = %.lr.ph, %44
  %14 = phi ptr [ %6, %.lr.ph ], [ %47, %44 ]
  %.02125 = phi i64 [ 0, %.lr.ph ], [ %45, %44 ]
  %15 = getelementptr inbounds ptr, ptr %14, i64 %.02125
  %16 = load ptr, ptr %15, align 8
  %17 = load ptr, ptr %7, align 8
  %.not.i = icmp eq ptr %17, null
  br i1 %.not.i, label %.loopexit, label %18

18:                                               ; preds = %13
  %19 = load ptr, ptr %17, align 8
  %20 = getelementptr inbounds nuw i8, ptr %19, i64 8
  %21 = load ptr, ptr %20, align 8
  %22 = load ptr, ptr %19, align 8
  %.not11.i = icmp eq ptr %21, %22
  br i1 %.not11.i, label %.loopexit, label %.lr.ph.preheader.i

.lr.ph.preheader.i:                               ; preds = %18
  %23 = ptrtoint ptr %21 to i64
  %24 = ptrtoint ptr %22 to i64
  %25 = sub i64 %23, %24
  %26 = ashr exact i64 %25, 3
  %umax.i = tail call i64 @llvm.umax.i64(i64 %26, i64 1)
  br label %.lr.ph.i

27:                                               ; preds = %.lr.ph.i
  %28 = add nuw i64 %.08.i, 1
  %exitcond.not.i = icmp eq i64 %28, %umax.i
  br i1 %exitcond.not.i, label %.loopexit, label %.lr.ph.i, !llvm.loop !9

.lr.ph.i:                                         ; preds = %27, %.lr.ph.preheader.i
  %.08.i = phi i64 [ %28, %27 ], [ 0, %.lr.ph.preheader.i ]
  %29 = load ptr, ptr %7, align 8
  %30 = load ptr, ptr %29, align 8
  %31 = load ptr, ptr %30, align 8
  %32 = getelementptr inbounds ptr, ptr %31, i64 %.08.i
  %33 = load ptr, ptr %32, align 8
  %34 = tail call noundef zeroext i1 @_ZNK8Variable5matchEPKS_(ptr noundef nonnull align 8 dereferenceable(200) %33, ptr noundef %16)
  br i1 %34, label %_ZNK9CGContext14is_nonreadableEPK8Variable.exit, label %27

.loopexit:                                        ; preds = %27, %13, %18
  %35 = load ptr, ptr %8, align 8
  %36 = tail call noundef zeroext i1 @_ZNK6Effect20is_written_partiallyEPK8Variable(ptr noundef nonnull align 8 dereferenceable(74) %35, ptr noundef %16)
  br i1 %36, label %_ZNK9CGContext14is_nonreadableEPK8Variable.exit, label %37

37:                                               ; preds = %.loopexit
  %38 = tail call noundef zeroext i1 @_ZNK8Variable11is_volatileEv(ptr noundef nonnull align 8 dereferenceable(200) %16)
  br i1 %38, label %39, label %44

39:                                               ; preds = %37
  %40 = load ptr, ptr %8, align 8
  %41 = getelementptr inbounds nuw i8, ptr %40, i64 73
  %42 = load i8, ptr %41, align 1
  %43 = trunc i8 %42 to i1
  br i1 %43, label %44, label %_ZNK9CGContext14is_nonreadableEPK8Variable.exit

44:                                               ; preds = %37, %39
  %45 = add nuw i64 %.02125, 1
  %46 = load ptr, ptr %4, align 8
  %47 = load ptr, ptr %1, align 8
  %48 = ptrtoint ptr %46 to i64
  %49 = ptrtoint ptr %47 to i64
  %50 = sub i64 %48, %49
  %51 = ashr exact i64 %50, 3
  %52 = icmp ult i64 %45, %51
  br i1 %52, label %13, label %.preheader, !llvm.loop !24

53:                                               ; preds = %.lr.ph27, %73
  %54 = phi ptr [ %11, %.lr.ph27 ], [ %76, %73 ]
  %.126 = phi i64 [ 0, %.lr.ph27 ], [ %74, %73 ]
  %55 = getelementptr inbounds ptr, ptr %54, i64 %.126
  %56 = load ptr, ptr %55, align 8
  %57 = tail call noundef zeroext i1 @_ZNK9CGContext14is_nonwritableEPK8Variable(ptr noundef nonnull align 8 dereferenceable(216) %0, ptr noundef %56)
  br i1 %57, label %_ZNK9CGContext14is_nonreadableEPK8Variable.exit, label %58

58:                                               ; preds = %53
  %59 = tail call noundef zeroext i1 @_ZNK8Variable8is_constEv(ptr noundef nonnull align 8 dereferenceable(200) %56)
  br i1 %59, label %_ZNK9CGContext14is_nonreadableEPK8Variable.exit, label %60

60:                                               ; preds = %58
  %61 = load ptr, ptr %12, align 8
  %62 = tail call noundef zeroext i1 @_ZNK6Effect20is_written_partiallyEPK8Variable(ptr noundef nonnull align 8 dereferenceable(74) %61, ptr noundef nonnull %56)
  br i1 %62, label %_ZNK9CGContext14is_nonreadableEPK8Variable.exit, label %63

63:                                               ; preds = %60
  %64 = load ptr, ptr %12, align 8
  %65 = tail call noundef zeroext i1 @_ZNK6Effect17is_read_partiallyEPK8Variable(ptr noundef nonnull align 8 dereferenceable(74) %64, ptr noundef nonnull %56)
  br i1 %65, label %_ZNK9CGContext14is_nonreadableEPK8Variable.exit, label %66

66:                                               ; preds = %63
  %67 = tail call noundef zeroext i1 @_ZNK8Variable11is_volatileEv(ptr noundef nonnull align 8 dereferenceable(200) %56)
  br i1 %67, label %68, label %73

68:                                               ; preds = %66
  %69 = load ptr, ptr %12, align 8
  %70 = getelementptr inbounds nuw i8, ptr %69, i64 73
  %71 = load i8, ptr %70, align 1
  %72 = trunc i8 %71 to i1
  br i1 %72, label %73, label %_ZNK9CGContext14is_nonreadableEPK8Variable.exit

73:                                               ; preds = %66, %68
  %74 = add nuw i64 %.126, 1
  %75 = load ptr, ptr %9, align 8
  %76 = load ptr, ptr %3, align 8
  %77 = ptrtoint ptr %75 to i64
  %78 = ptrtoint ptr %76 to i64
  %79 = sub i64 %77, %78
  %80 = ashr exact i64 %79, 3
  %81 = icmp ult i64 %74, %80
  br i1 %81, label %53, label %_ZNK9CGContext14is_nonreadableEPK8Variable.exit, !llvm.loop !25

_ZNK9CGContext14is_nonreadableEPK8Variable.exit:  ; preds = %39, %.loopexit, %.lr.ph.i, %58, %53, %60, %63, %68, %73, %.preheader
  %.0 = phi i1 [ false, %.preheader ], [ true, %58 ], [ true, %53 ], [ true, %60 ], [ true, %63 ], [ true, %68 ], [ false, %73 ], [ true, %.lr.ph.i ], [ true, %.loopexit ], [ true, %39 ]
  ret i1 %.0
}